; ModuleID = 'bench/linux/original/i2c-boardinfo.ll'
source_filename = "bench/linux/original/i2c-boardinfo.ll"
target datalayout = "e-m:e-p270:32:32-p271:32:32-p272:64:64-i64:64-i128:128-f80:128-n8:16:32:64-S128"
target triple = "x86_64-unknown-linux-gnu"

module asm ".section \22.export_symbol\22,\22a\22 ; __export_symbol___i2c_board_lock: ; .asciz \22GPL\22 ; .asciz \22\22 ; .balign 8 ; .quad __i2c_board_lock ; .previous"
module asm ".section \22.export_symbol\22,\22a\22 ; __export_symbol___i2c_board_list: ; .asciz \22GPL\22 ; .asciz \22\22 ; .balign 8 ; .quad __i2c_board_list ; .previous"
module asm ".section \22.export_symbol\22,\22a\22 ; __export_symbol___i2c_first_dynamic_bus_num: ; .asciz \22GPL\22 ; .asciz \22\22 ; .balign 8 ; .quad __i2c_first_dynamic_bus_num ; .previous"

%struct.rw_semaphore = type { %struct.atomic64_t, %struct.atomic64_t, %struct.optimistic_spin_queue, %struct.raw_spinlock, %struct.list_head }
%struct.atomic64_t = type { i64 }
%struct.optimistic_spin_queue = type { %struct.atomic_t }
%struct.atomic_t = type { i32 }
%struct.raw_spinlock = type { %struct.qspinlock }
%struct.qspinlock = type { %union.anon }
%union.anon = type { %struct.atomic_t }
%struct.list_head = type { ptr, ptr }

@__i2c_board_lock = dso_local global %struct.rw_semaphore { %struct.atomic64_t zeroinitializer, %struct.atomic64_t zeroinitializer, %struct.optimistic_spin_queue zeroinitializer, %struct.raw_spinlock zeroinitializer, %struct.list_head { ptr getelementptr (i8, ptr @__i2c_board_lock, i64 24), ptr getelementptr (i8, ptr @__i2c_board_lock, i64 24) } }, align 8
@__UNIQUE_ID___addressable___i2c_board_lock420 = internal global ptr @__i2c_board_lock, section ".discard.addressable", align 8
@__i2c_board_list = dso_local global %struct.list_head { ptr @__i2c_board_list, ptr @__i2c_board_list }, align 8
@__UNIQUE_ID___addressable___i2c_board_list421 = internal global ptr @__i2c_board_list, section ".discard.addressable", align 8
@__i2c_first_dynamic_bus_num = dso_local global i32 0, align 4
@__UNIQUE_ID___addressable___i2c_first_dynamic_bus_num422 = internal global ptr @__i2c_first_dynamic_bus_num, section ".discard.addressable", align 8
@kmalloc_caches = external dso_local local_unnamed_addr global [3 x [14 x ptr]], align 16
@llvm.compiler.used = appending global [3 x ptr] [ptr @__UNIQUE_ID___addressable___i2c_board_list421, ptr @__UNIQUE_ID___addressable___i2c_board_lock420, ptr @__UNIQUE_ID___addressable___i2c_first_dynamic_bus_num422], section "llvm.metadata"

; Function Attrs: fn_ret_thunk_extern nounwind null_pointer_is_valid
define dso_local noundef i32 @i2c_register_board_info(i32 noundef %0, ptr nocapture noundef readonly %1, i32 noundef %2) local_unnamed_addr #0 align 16 {
  tail call void @down_write(ptr noundef nonnull @__i2c_board_lock) #5
  %4 = load i32, ptr @__i2c_first_dynamic_bus_num, align 4
  %5 = icmp sgt i32 %4, %0
  br i1 %5, label %8, label %6

6:                                                ; preds = %3
  %7 = add i32 %0, 1
  store i32 %7, ptr @__i2c_first_dynamic_bus_num, align 4
  br label %8

8:                                                ; preds = %6, %3
  %9 = icmp eq i32 %2, 0
  br i1 %9, label %.thread, label %.preheader

.preheader:                                       ; preds = %8, %30
  %10 = phi ptr [ %34, %30 ], [ %1, %8 ]
  %11 = phi i32 [ %33, %30 ], [ %2, %8 ]
  %12 = load ptr, ptr getelementptr inbounds ([3 x [14 x ptr]], ptr @kmalloc_caches, i64 0, i64 0, i64 7), align 8
  %13 = tail call noalias noundef align 8 dereferenceable_or_null(104) ptr @kmalloc_trace(ptr noundef %12, i32 noundef 3520, i64 noundef 104) #6
  %14 = icmp eq ptr %13, null
  br i1 %14, label %.thread, label %15

15:                                               ; preds = %.preheader
  %16 = getelementptr inbounds i8, ptr %13, i64 16
  store i32 %0, ptr %16, align 8
  %17 = getelementptr inbounds i8, ptr %13, i64 24
  tail call void @llvm.memcpy.p0.p0.i64(ptr noundef align 8 dereferenceable(80) %17, ptr noundef align 8 dereferenceable(80) %10, i64 80, i1 false)
  %18 = getelementptr inbounds i8, ptr %10, i64 64
  %19 = load ptr, ptr %18, align 8
  %20 = icmp eq ptr %19, null
  br i1 %20, label %30, label %21

21:                                               ; preds = %15
  %22 = getelementptr inbounds i8, ptr %10, i64 72
  %23 = load i32, ptr %22, align 8
  %24 = zext i32 %23 to i64
  %25 = shl nuw nsw i64 %24, 6
  %26 = tail call ptr @kmemdup(ptr noundef nonnull %19, i64 noundef %25, i32 noundef 3264) #7
  %27 = getelementptr inbounds i8, ptr %13, i64 88
  store ptr %26, ptr %27, align 8
  %28 = icmp eq ptr %26, null
  br i1 %28, label %29, label %30

29:                                               ; preds = %21
  tail call void @kfree(ptr noundef nonnull %13) #5
  br label %.thread

30:                                               ; preds = %15, %21
  %31 = load ptr, ptr getelementptr inbounds (%struct.list_head, ptr @__i2c_board_list, i64 0, i32 1), align 8
  store ptr %13, ptr getelementptr inbounds (%struct.list_head, ptr @__i2c_board_list, i64 0, i32 1), align 8
  store ptr @__i2c_board_list, ptr %13, align 8
  %32 = getelementptr inbounds i8, ptr %13, i64 8
  store ptr %31, ptr %32, align 8
  store volatile ptr %13, ptr %31, align 8
  %33 = add i32 %11, -1
  %34 = getelementptr i8, ptr %10, i64 80
  %35 = icmp eq i32 %33, 0
  br i1 %35, label %.thread, label %.preheader, !llvm.loop !5

.thread:                                          ; preds = %.preheader, %30, %29, %8
  %36 = phi i32 [ 0, %8 ], [ -12, %29 ], [ -12, %.preheader ], [ 0, %30 ]
  tail call void @up_write(ptr noundef nonnull @__i2c_board_lock) #5
  ret i32 %36
}

; Function Attrs: null_pointer_is_valid
declare dso_local void @down_write(ptr noundef) local_unnamed_addr #1

; Function Attrs: mustprogress nocallback nofree nounwind willreturn memory(argmem: readwrite)
declare void @llvm.memcpy.p0.p0.i64(ptr noalias nocapture writeonly, ptr noalias nocapture readonly, i64, i1 immarg) #2

; Function Attrs: null_pointer_is_valid allocsize(1)
declare dso_local ptr @kmemdup(ptr noundef, i64 noundef, i32 noundef) local_unnamed_addr #3

; Function Attrs: null_pointer_is_valid
declare dso_local void @kfree(ptr noundef) local_unnamed_addr #1

; Function Attrs: null_pointer_is_valid
declare dso_local void @up_write(ptr noundef) local_unnamed_addr #1

; Function Attrs: null_pointer_is_valid allocsize(2)
declare dso_local noalias ptr @kmalloc_trace(ptr noundef, i32 noundef, i64 noundef) local_unnamed_addr #4


!llvm.module.flags = !{!0, !1, !2, !3, !4}

!0 = !{i32 1, !"wchar_size", i32 2}
!1 = !{i32 8, !"cf-protection-branch", i32 1}
!2 = !{i32 4, !"function_return_thunk_extern", i32 1}
!3 = !{i32 4, !"indirect_branch_cs_prefix", i32 1}
!4 = !{i32 4, !"SkipRaxSetup", i32 1}
!5 = distinct !{!5, !6, !7}
!6 = !{!"llvm.loop.mustprogress"}
!7 = !{!"llvm.loop.unroll.disable"}
